target datalayout = "e-m:e-p270:32:32-p271:32:32-p272:64:64-i64:64-i128:128-f80:128-n8:16:32:64-S128"
target triple = "x86_64-pc-linux-gnu"

%"class.duckdb::ScalarFunction" = type { %"class.duckdb::BaseScalarFunction.base", %"class.std::function", ptr, ptr, ptr, ptr, ptr, ptr, ptr, ptr, ptr, %"class.duckdb::shared_ptr.3" }
%"class.duckdb::BaseScalarFunction.base" = type <{ %"class.duckdb::SimpleFunction", %"struct.duckdb::LogicalType", i8, i8, i8, i8 }>
%"class.duckdb::SimpleFunction" = type { %"class.duckdb::Function", %"class.duckdb::vector", %"class.duckdb::vector", %"struct.duckdb::LogicalType" }
%"class.duckdb::Function" = type { ptr, %"class.std::__cxx11::basic_string", %"class.std::__cxx11::basic_string" }
%"class.std::__cxx11::basic_string" = type { %"struct.std::__cxx11::basic_string<char>::_Alloc_hider", i64, %union.anon }
%"struct.std::__cxx11::basic_string<char>::_Alloc_hider" = type { ptr }
%union.anon = type { i64, [8 x i8] }
%"class.duckdb::vector" = type { %"class.std::vector" }
%"class.std::vector" = type { %"struct.std::_Vector_base" }
%"struct.std::_Vector_base" = type { %"struct.std::_Vector_base<duckdb::LogicalType, std::allocator<duckdb::LogicalType>>::_Vector_impl" }
%"struct.std::_Vector_base<duckdb::LogicalType, std::allocator<duckdb::LogicalType>>::_Vector_impl" = type { %"struct.std::_Vector_base<duckdb::LogicalType, std::allocator<duckdb::LogicalType>>::_Vector_impl_data" }
%"struct.std::_Vector_base<duckdb::LogicalType, std::allocator<duckdb::LogicalType>>::_Vector_impl_data" = type { ptr, ptr, ptr }
%"struct.duckdb::LogicalType" = type { i8, i8, %"class.duckdb::shared_ptr" }
%"class.duckdb::shared_ptr" = type { %"class.std::shared_ptr" }
%"class.std::shared_ptr" = type { %"class.std::__shared_ptr" }
%"class.std::__shared_ptr" = type { ptr, %"class.std::__shared_count" }
%"class.std::__shared_count" = type { ptr }
%"class.std::function" = type { %"class.std::_Function_base", ptr }
%"class.std::_Function_base" = type { %"union.std::_Any_data", ptr }
%"union.std::_Any_data" = type { %"union.std::_Nocopy_types" }
%"union.std::_Nocopy_types" = type { { i64, i64 } }
%"class.duckdb::shared_ptr.3" = type { %"class.std::shared_ptr.4" }
%"class.std::shared_ptr.4" = type { %"class.std::__shared_ptr.5" }
%"class.std::__shared_ptr.5" = type { ptr, %"class.std::__shared_count" }
%"class.duckdb::Value" = type { %"struct.duckdb::LogicalType", i8, %"union.duckdb::Value::Val", %"class.duckdb::shared_ptr.194" }
%"union.duckdb::Value::Val" = type { %"struct.duckdb::hugeint_t" }
%"struct.duckdb::hugeint_t" = type { i64, i64 }
%"class.duckdb::shared_ptr.194" = type { %"class.std::shared_ptr.195" }
%"class.std::shared_ptr.195" = type { %"class.std::__shared_ptr.196" }
%"class.std::__shared_ptr.196" = type { ptr, %"class.std::__shared_count" }
%"struct.duckdb::ExpressionState" = type { ptr, ptr, ptr, %"class.duckdb::vector.217", %"class.duckdb::vector", %"class.duckdb::DataChunk", %"class.duckdb::vector.235" }
%"class.duckdb::vector.217" = type { %"class.std::vector.218" }
%"class.std::vector.218" = type { %"struct.std::_Vector_base.219" }
%"struct.std::_Vector_base.219" = type { %"struct.std::_Vector_base<duckdb::unique_ptr<duckdb::ExpressionState>, std::allocator<duckdb::unique_ptr<duckdb::ExpressionState>>>::_Vector_impl" }
%"struct.std::_Vector_base<duckdb::unique_ptr<duckdb::ExpressionState>, std::allocator<duckdb::unique_ptr<duckdb::ExpressionState>>>::_Vector_impl" = type { %"struct.std::_Vector_base<duckdb::unique_ptr<duckdb::ExpressionState>, std::allocator<duckdb::unique_ptr<duckdb::ExpressionState>>>::_Vector_impl_data" }
%"struct.std::_Vector_base<duckdb::unique_ptr<duckdb::ExpressionState>, std::allocator<duckdb::unique_ptr<duckdb::ExpressionState>>>::_Vector_impl_data" = type { ptr, ptr, ptr }
%"class.duckdb::DataChunk" = type { %"class.duckdb::vector.223", i64, i64, %"class.duckdb::vector.229" }
%"class.duckdb::vector.223" = type { %"class.std::vector.224" }
%"class.std::vector.224" = type { %"struct.std::_Vector_base.225" }
%"struct.std::_Vector_base.225" = type { %"struct.std::_Vector_base<duckdb::Vector, std::allocator<duckdb::Vector>>::_Vector_impl" }
%"struct.std::_Vector_base<duckdb::Vector, std::allocator<duckdb::Vector>>::_Vector_impl" = type { %"struct.std::_Vector_base<duckdb::Vector, std::allocator<duckdb::Vector>>::_Vector_impl_data" }
%"struct.std::_Vector_base<duckdb::Vector, std::allocator<duckdb::Vector>>::_Vector_impl_data" = type { ptr, ptr, ptr }
%"class.duckdb::vector.229" = type { %"class.std::vector.230" }
%"class.std::vector.230" = type { %"struct.std::_Vector_base.231" }
%"struct.std::_Vector_base.231" = type { %"struct.std::_Vector_base<duckdb::VectorCache, std::allocator<duckdb::VectorCache>>::_Vector_impl" }
%"struct.std::_Vector_base<duckdb::VectorCache, std::allocator<duckdb::VectorCache>>::_Vector_impl" = type { %"struct.std::_Vector_base<duckdb::VectorCache, std::allocator<duckdb::VectorCache>>::_Vector_impl_data" }
%"struct.std::_Vector_base<duckdb::VectorCache, std::allocator<duckdb::VectorCache>>::_Vector_impl_data" = type { ptr, ptr, ptr }
%"class.duckdb::vector.235" = type { %"class.std::vector.236" }
%"class.std::vector.236" = type { %"struct.std::_Bvector_base" }
%"struct.std::_Bvector_base" = type { %"struct.std::_Bvector_base<std::allocator<bool>>::_Bvector_impl" }
%"struct.std::_Bvector_base<std::allocator<bool>>::_Bvector_impl" = type { %"struct.std::_Bvector_base<std::allocator<bool>>::_Bvector_impl_data" }
%"struct.std::_Bvector_base<std::allocator<bool>>::_Bvector_impl_data" = type { %"struct.std::_Bit_iterator", %"struct.std::_Bit_iterator", ptr }
%"struct.std::_Bit_iterator" = type { %"struct.std::_Bit_iterator_base.base", [4 x i8] }
%"struct.std::_Bit_iterator_base.base" = type <{ ptr, i32 }>
%"class.duckdb::BoundFunctionExpression" = type <{ %"class.duckdb::Expression", %"class.duckdb::ScalarFunction", %"class.duckdb::vector.9", %"class.duckdb::unique_ptr", i8, [7 x i8] }>
%"class.duckdb::Expression" = type { %"class.duckdb::BaseExpression", %"struct.duckdb::LogicalType", %"class.duckdb::unique_ptr.24" }
%"class.duckdb::BaseExpression" = type { ptr, i8, i8, %"class.std::__cxx11::basic_string", %"class.duckdb::optional_idx" }
%"class.duckdb::optional_idx" = type { i64 }
%"class.duckdb::unique_ptr.24" = type { %"class.std::unique_ptr.25" }
%"class.std::unique_ptr.25" = type { %"struct.std::__uniq_ptr_data.26" }
%"struct.std::__uniq_ptr_data.26" = type { %"class.std::__uniq_ptr_impl.27" }
%"class.std::__uniq_ptr_impl.27" = type { %"class.std::tuple.28" }
%"class.std::tuple.28" = type { %"struct.std::_Tuple_impl.29" }
%"struct.std::_Tuple_impl.29" = type { %"struct.std::_Head_base.32" }
%"struct.std::_Head_base.32" = type { ptr }
%"class.duckdb::vector.9" = type { %"class.std::vector.10" }
%"class.std::vector.10" = type { %"struct.std::_Vector_base.11" }
%"struct.std::_Vector_base.11" = type { %"struct.std::_Vector_base<duckdb::unique_ptr<duckdb::Expression>, std::allocator<duckdb::unique_ptr<duckdb::Expression>>>::_Vector_impl" }
%"struct.std::_Vector_base<duckdb::unique_ptr<duckdb::Expression>, std::allocator<duckdb::unique_ptr<duckdb::Expression>>>::_Vector_impl" = type { %"struct.std::_Vector_base<duckdb::unique_ptr<duckdb::Expression>, std::allocator<duckdb::unique_ptr<duckdb::Expression>>>::_Vector_impl_data" }
%"struct.std::_Vector_base<duckdb::unique_ptr<duckdb::Expression>, std::allocator<duckdb::unique_ptr<duckdb::Expression>>>::_Vector_impl_data" = type { ptr, ptr, ptr }
%"class.duckdb::unique_ptr" = type { %"class.std::unique_ptr" }
%"class.std::unique_ptr" = type { %"struct.std::__uniq_ptr_data" }
%"struct.std::__uniq_ptr_data" = type { %"class.std::__uniq_ptr_impl" }
%"class.std::__uniq_ptr_impl" = type { %"class.std::tuple" }
%"class.std::tuple" = type { %"struct.std::_Tuple_impl" }
%"struct.std::_Tuple_impl" = type { %"struct.std::_Head_base.8" }
%"struct.std::_Head_base.8" = type { ptr }
%"struct.duckdb::CurrentSettingBindData" = type { %"struct.duckdb::FunctionData", %"class.duckdb::Value" }
%"struct.duckdb::FunctionData" = type { ptr }

; Function Attrs: mustprogress nounwind uwtable
define linkonce_odr void @_ZN6duckdb16DynamicCastCheckINS_22CurrentSettingBindDataENS_12FunctionDataEEEvPKT0_(ptr noundef %0) #4 comdat {
  %2 = alloca ptr, align 8
  store ptr %0, ptr %2, align 8, !tbaa !483
  ret void
}

; Function Attrs: mustprogress uwtable
define linkonce_odr noundef nonnull align 8 dereferenceable(72) ptr @_ZN6duckdb12FunctionData4CastINS_22CurrentSettingBindDataEEERT_v(ptr noundef nonnull align 8 dereferenceable(8) %0) #0 comdat align 2 {
  %2 = alloca ptr, align 8
  store ptr %0, ptr %2, align 8, !tbaa !483
  %3 = load ptr, ptr %2, align 8
  call void @_ZN6duckdb16DynamicCastCheckINS_22CurrentSettingBindDataENS_12FunctionDataEEEvPKT0_(ptr noundef %3)
  ret ptr %3
}

; Function Attrs: mustprogress uwtable
define internal void @_ZN6duckdbL22CurrentSettingFunctionERNS_9DataChunkERNS_15ExpressionStateERNS_6VectorE(ptr noundef nonnull align 8 dereferenceable(64) %0, ptr noundef nonnull align 8 dereferenceable(176) %1, ptr noundef nonnull align 8 dereferenceable(104) %2) #0 {
  %4 = alloca ptr, align 8
  %5 = alloca ptr, align 8
  %6 = alloca ptr, align 8
  %7 = alloca ptr, align 8
  %8 = alloca ptr, align 8
  store ptr %0, ptr %4, align 8, !tbaa !40
  store ptr %1, ptr %5, align 8, !tbaa !42
  store ptr %2, ptr %6, align 8, !tbaa !44
  call void @llvm.lifetime.start.p0(i64 8, ptr %7) #8
  %9 = load ptr, ptr %5, align 8, !tbaa !42
  %10 = getelementptr inbounds nuw %"struct.duckdb::ExpressionState", ptr %9, i32 0, i32 1
  %11 = load ptr, ptr %10, align 8, !tbaa !46
  %12 = call noundef nonnull align 8 dereferenceable(417) ptr @_ZNK6duckdb14BaseExpression4CastINS_23BoundFunctionExpressionEEERKT_v(ptr noundef nonnull align 8 dereferenceable(56) %11)
  store ptr %12, ptr %7, align 8, !tbaa !77
  call void @llvm.lifetime.start.p0(i64 8, ptr %8) #8
  %13 = load ptr, ptr %7, align 8, !tbaa !77
  %14 = getelementptr inbounds nuw %"class.duckdb::BoundFunctionExpression", ptr %13, i32 0, i32 3
  %15 = call noundef ptr @_ZNK6duckdb10unique_ptrINS_12FunctionDataESt14default_deleteIS1_ELb1EEptEv(ptr noundef nonnull align 8 dereferenceable(8) %14)
  %16 = call noundef nonnull align 8 dereferenceable(72) ptr @_ZN6duckdb12FunctionData4CastINS_22CurrentSettingBindDataEEERT_v(ptr noundef nonnull align 8 dereferenceable(8) %15)
  store ptr %16, ptr %8, align 8, !tbaa !198
  %17 = load ptr, ptr %6, align 8, !tbaa !44
  %18 = load ptr, ptr %8, align 8, !tbaa !198
  %19 = getelementptr inbounds nuw %"struct.duckdb::CurrentSettingBindData", ptr %18, i32 0, i32 1
  call void @_ZN6duckdb6Vector9ReferenceERKNS_5ValueE(ptr noundef nonnull align 8 dereferenceable(104) %17, ptr noundef nonnull align 8 dereferenceable(64) %19)
  call void @llvm.lifetime.end.p0(i64 8, ptr %8) #8
  call void @llvm.lifetime.end.p0(i64 8, ptr %7) #8
  ret void
}